target datalayout = "e-m:e-p270:32:32-p271:32:32-p272:64:64-i64:64-i128:128-f80:128-n8:16:32:64-S128"
target triple = "x86_64-pc-linux-gnu"

%struct.expert_field = type { i32, i32 }

@hf_nfapi_primary_cell_type = internal global i32 0, align 4
@hf_nfapi_ul_dl_configuration_flag = internal global i32 0, align 4
@hf_nfapi_number_of_ul_dl_configurations = internal global i32 0, align 4
@ett_nfapi_pnf_phy = internal global i32 0, align 4
@ei_invalid_range = internal global %struct.expert_field zeroinitializer, align 4
@.str.1839 = private unnamed_addr constant [3 x i8] c"%s\00", align 1
@.str.1840 = private unnamed_addr constant [5 x i8] c"[%d]\00", align 1
@.str.2197 = private unnamed_addr constant [39 x i8] c"Invalid primary cell type value [0..2]\00", align 1
@.str.2198 = private unnamed_addr constant [46 x i8] c"Invalid ul/dl configuration flag value [0..1]\00", align 1
@.str.2199 = private unnamed_addr constant [21 x i8] c"UL/DL Configurations\00", align 1

; Function Attrs: nounwind uwtable
define internal void @dissect_array_value(ptr noundef %0, ptr noundef %1, ptr noundef %2, i32 noundef %3, i32 noundef %4, ptr noundef %5) #0 {
  %7 = alloca ptr, align 8
  %8 = alloca ptr, align 8
  %9 = alloca ptr, align 8
  %10 = alloca i32, align 4
  %11 = alloca i32, align 4
  %12 = alloca ptr, align 8
  %13 = alloca i16, align 2
  store ptr %0, ptr %7, align 8
  store ptr %1, ptr %8, align 8
  store ptr %2, ptr %9, align 8
  store i32 %3, ptr %10, align 4
  store i32 %4, ptr %11, align 4
  store ptr %5, ptr %12, align 8
  %14 = load i32, ptr %11, align 4
  %15 = icmp ugt i32 %14, 0
  br i1 %15, label %16, label %41

16:                                               ; preds = %6
  %17 = load ptr, ptr %7, align 8
  %18 = load i32, ptr %10, align 4
  %19 = load ptr, ptr %9, align 8
  %20 = call ptr (ptr, i32, i32, ptr, ...) @ptvcursor_add_text_with_subtree(ptr noundef %17, i32 noundef -1, i32 noundef %18, ptr noundef @.str.1839, ptr noundef %19)
  store i16 0, ptr %13, align 2
  br label %21

21:                                               ; preds = %36, %16
  %22 = load i16, ptr %13, align 2
  %23 = zext i16 %22 to i32
  %24 = load i32, ptr %11, align 4
  %25 = icmp ult i32 %23, %24
  br i1 %25, label %26, label %39

26:                                               ; preds = %21
  %27 = load ptr, ptr %7, align 8
  %28 = load i32, ptr %10, align 4
  %29 = load i16, ptr %13, align 2
  %30 = zext i16 %29 to i32
  %31 = call ptr (ptr, i32, i32, ptr, ...) @ptvcursor_add_text_with_subtree(ptr noundef %27, i32 noundef -1, i32 noundef %28, ptr noundef @.str.1840, i32 noundef %30)
  %32 = load ptr, ptr %12, align 8
  %33 = load ptr, ptr %7, align 8
  %34 = load ptr, ptr %8, align 8
  call void %32(ptr noundef %33, ptr noundef %34)
  %35 = load ptr, ptr %7, align 8
  call void @ptvcursor_pop_subtree(ptr noundef %35)
  br label %36

36:                                               ; preds = %26
  %37 = load i16, ptr %13, align 2
  %38 = add i16 %37, 1
  store i16 %38, ptr %13, align 2
  br label %21, !llvm.loop !4

39:                                               ; preds = %21
  %40 = load ptr, ptr %7, align 8
  call void @ptvcursor_pop_subtree(ptr noundef %40)
  br label %41

41:                                               ; preds = %39, %6
  ret void
}

; Function Attrs: nounwind uwtable
define internal void @dissect_dl_config_request_dl_dci_pdu_rel12_value(ptr noundef %0, ptr noundef %1) #0 {
  %3 = alloca ptr, align 8
  %4 = alloca ptr, align 8
  %5 = alloca ptr, align 8
  %6 = alloca i32, align 4
  %7 = alloca i32, align 4
  %8 = alloca i32, align 4
  store ptr %0, ptr %3, align 8
  store ptr %1, ptr %4, align 8
  %9 = load ptr, ptr %3, align 8
  %10 = load i32, ptr @hf_nfapi_primary_cell_type, align 4
  %11 = call ptr @ptvcursor_add_ret_uint(ptr noundef %9, i32 noundef %10, i32 noundef 1, i32 noundef 0, ptr noundef %6)
  store ptr %11, ptr %5, align 8
  %12 = load i32, ptr %6, align 4
  %13 = icmp ugt i32 %12, 2
  br i1 %13, label %14, label %18

14:                                               ; preds = %2
  %15 = load ptr, ptr %4, align 8
  %16 = load ptr, ptr %5, align 8
  %17 = call ptr (ptr, ptr, ptr, ptr, ...) @expert_add_info_format(ptr noundef %15, ptr noundef %16, ptr noundef @ei_invalid_range, ptr noundef @.str.2197)
  br label %18

18:                                               ; preds = %14, %2
  %19 = load ptr, ptr %3, align 8
  %20 = load i32, ptr @hf_nfapi_ul_dl_configuration_flag, align 4
  %21 = call ptr @ptvcursor_add_ret_boolean(ptr noundef %19, i32 noundef %20, i32 noundef 1, i32 noundef 0, ptr noundef %8)
  store ptr %21, ptr %5, align 8
  %22 = load i32, ptr %8, align 4
  %23 = icmp sgt i32 %22, 1
  br i1 %23, label %24, label %28

24:                                               ; preds = %18
  %25 = load ptr, ptr %4, align 8
  %26 = load ptr, ptr %5, align 8
  %27 = call ptr (ptr, ptr, ptr, ptr, ...) @expert_add_info_format(ptr noundef %25, ptr noundef %26, ptr noundef @ei_invalid_range, ptr noundef @.str.2198)
  br label %28

28:                                               ; preds = %24, %18
  %29 = load ptr, ptr %3, align 8
  %30 = load i32, ptr @hf_nfapi_number_of_ul_dl_configurations, align 4
  %31 = call ptr @ptvcursor_add_ret_uint(ptr noundef %29, i32 noundef %30, i32 noundef 1, i32 noundef 0, ptr noundef %7)
  %32 = load ptr, ptr %3, align 8
  %33 = load ptr, ptr %4, align 8
  %34 = load i32, ptr @ett_nfapi_pnf_phy, align 4
  %35 = load i32, ptr %7, align 4
  call void @dissect_array_value(ptr noundef %32, ptr noundef %33, ptr noundef @.str.2199, i32 noundef %34, i32 noundef %35, ptr noundef @dissect_ul_dl_configuration_index_value)
  ret void
}