; Function Attrs: nounwind uwtable
define internal void @dissect_dl_config_request_dl_dci_pdu_rel12_value(ptr noundef %0, ptr noundef %1) #0 {
  %3 = alloca i32, align 4
  %4 = alloca i32, align 4
  %5 = alloca i32, align 4
  %6 = alloca i32, align 4
  %7 = load i32, ptr @hf_nfapi_primary_cell_type, align 4
  %8 = call ptr @ptvcursor_add_ret_uint(ptr noundef %0, i32 noundef %7, i32 noundef 1, i32 noundef 0, ptr noundef nonnull %4) #7
  %9 = load i32, ptr %4, align 4
  %10 = icmp ugt i32 %9, 2
  br i1 %10, label %11, label %13

11:                                               ; preds = %2
  %12 = call ptr (ptr, ptr, ptr, ptr, ...) @expert_add_info_format(ptr noundef %1, ptr noundef %8, ptr noundef nonnull @ei_invalid_range, ptr noundef nonnull @.str.2197) #7
  br label %13

13:                                               ; preds = %11, %2
  %14 = load i32, ptr @hf_nfapi_ul_dl_configuration_flag, align 4
  %15 = call ptr @ptvcursor_add_ret_boolean(ptr noundef %0, i32 noundef %14, i32 noundef 1, i32 noundef 0, ptr noundef nonnull %6) #7
  %16 = load i32, ptr %6, align 4
  %17 = icmp sgt i32 %16, 1
  br i1 %17, label %18, label %20

18:                                               ; preds = %13
  %19 = call ptr (ptr, ptr, ptr, ptr, ...) @expert_add_info_format(ptr noundef %1, ptr noundef %15, ptr noundef nonnull @ei_invalid_range, ptr noundef nonnull @.str.2198) #7
  br label %20

20:                                               ; preds = %18, %13
  %21 = load i32, ptr @hf_nfapi_number_of_ul_dl_configurations, align 4
  %22 = call ptr @ptvcursor_add_ret_uint(ptr noundef %0, i32 noundef %21, i32 noundef 1, i32 noundef 0, ptr noundef nonnull %5) #7
  %23 = load i32, ptr @ett_nfapi_pnf_phy, align 4
  %24 = load i32, ptr %5, align 4
  %.not.i = icmp eq i32 %24, 0
  br i1 %.not.i, label %dissect_array_value.exit, label %25

25:                                               ; preds = %20
  %26 = call ptr (ptr, i32, i32, ptr, ...) @ptvcursor_add_text_with_subtree(ptr noundef %0, i32 noundef -1, i32 noundef %23, ptr noundef nonnull @.str.1839, ptr noundef nonnull @.str.2199) #7
  br label %27

27:                                               ; preds = %dissect_ul_dl_configuration_index_value.exit, %25
  %28 = phi i32 [ 0, %25 ], [ %37, %dissect_ul_dl_configuration_index_value.exit ]
  %.016.i = phi i16 [ 0, %25 ], [ %36, %dissect_ul_dl_configuration_index_value.exit ]
  %29 = call ptr (ptr, i32, i32, ptr, ...) @ptvcursor_add_text_with_subtree(ptr noundef %0, i32 noundef -1, i32 noundef %23, ptr noundef nonnull @.str.1840, i32 noundef %28) #7
  call void @llvm.lifetime.start.p0(i64 4, ptr nonnull %3)
  %30 = load i32, ptr @hf_nfapi_ul_dl_configuration_index, align 4
  %31 = call ptr @ptvcursor_add_ret_uint(ptr noundef %0, i32 noundef %30, i32 noundef 1, i32 noundef 0, ptr noundef nonnull %3) #7
  %32 = load i32, ptr %3, align 4
  %33 = add i32 %32, -1
  %or.cond.i = icmp ult i32 %33, 5
  br i1 %or.cond.i, label %dissect_ul_dl_configuration_index_value.exit, label %34

34:                                               ; preds = %27
  %35 = call ptr (ptr, ptr, ptr, ptr, ...) @expert_add_info_format(ptr noundef %1, ptr noundef %31, ptr noundef nonnull @ei_invalid_range, ptr noundef nonnull @.str.2200) #7
  br label %dissect_ul_dl_configuration_index_value.exit

dissect_ul_dl_configuration_index_value.exit:     ; preds = %27, %34
  call void @llvm.lifetime.end.p0(i64 4, ptr nonnull %3)
  call void @ptvcursor_pop_subtree(ptr noundef %0) #7
  %36 = add i16 %.016.i, 1
  %37 = zext i16 %36 to i32
  %38 = icmp ugt i32 %24, %37
  br i1 %38, label %27, label %39, !llvm.loop !4

39:                                               ; preds = %dissect_ul_dl_configuration_index_value.exit
  call void @ptvcursor_pop_subtree(ptr noundef %0) #7
  br label %dissect_array_value.exit

dissect_array_value.exit:                         ; preds = %20, %39
  ret void
}